target datalayout = "e-m:e-p270:32:32-p271:32:32-p272:64:64-i64:64-i128:128-f80:128-n8:16:32:64-S128"
target triple = "x86_64-pc-linux-gnu"

%struct._zend_array = type { %struct._zend_refcounted_h, %union.anon.4, i32, %union.anon.6, i32, i32, i32, i32, i64, ptr }
%struct._zend_refcounted_h = type { i32, %union.anon.3 }
%union.anon.3 = type { i32 }
%union.anon.4 = type { i32 }
%union.anon.6 = type { ptr }
%struct._zend_string = type { %struct._zend_refcounted_h, i64, i64, [1 x i8] }
%struct._zend_class_entry = type { i8, ptr, %union.anon.8, i32, i32, i32, i32, ptr, ptr, ptr, %struct._zend_array, %struct._zend_array, %struct._zend_array, ptr, ptr, ptr, ptr, ptr, ptr, ptr, ptr, ptr, ptr, ptr, ptr, ptr, ptr, ptr, ptr, ptr, ptr, ptr, %union.anon.9, ptr, ptr, ptr, ptr, i32, i32, i32, i32, %union.anon.10, ptr, ptr, ptr, ptr, i32, ptr, ptr, %union.anon.11 }
%union.anon.8 = type { ptr }
%union.anon.9 = type { ptr }
%union.anon.10 = type { ptr }
%union.anon.11 = type { %struct.anon.12 }
%struct.anon.12 = type { ptr, i32, i32 }
%struct.anon.7 = type { i8, [3 x i8], i32, ptr, ptr, ptr, i32, i32, ptr, ptr, ptr, ptr, i32, ptr }
%struct._zend_arg_info = type { ptr, %struct.zend_type, ptr }
%struct.zend_type = type { ptr, i32 }

@.str.171 = private unnamed_addr constant [63 x i8] c"%s::%s(): Parameter #%d ($%s) must be of type %s when declared\00", align 1

; Function Attrs: nounwind uwtable
define internal void @zend_check_magic_method_arg_type(i32 noundef %0, ptr noundef %1, ptr noundef %2, i32 noundef %3, i32 noundef %4) #0 {
  %6 = alloca i32, align 4
  %7 = alloca ptr, align 8
  %8 = alloca ptr, align 8
  %9 = alloca i32, align 4
  %10 = alloca i32, align 4
  %11 = alloca %struct.zend_type, align 8
  store i32 %0, ptr %6, align 4, !tbaa !4
  store ptr %1, ptr %7, align 8, !tbaa !66
  store ptr %2, ptr %8, align 8, !tbaa !77
  store i32 %3, ptr %9, align 4, !tbaa !4
  store i32 %4, ptr %10, align 4, !tbaa !4
  %12 = load ptr, ptr %8, align 8, !tbaa !77
  %13 = getelementptr inbounds nuw %struct.anon.7, ptr %12, i32 0, i32 8
  %14 = load ptr, ptr %13, align 8, !tbaa !44
  %15 = load i32, ptr %6, align 4, !tbaa !4
  %16 = zext i32 %15 to i64
  %17 = getelementptr inbounds nuw %struct._zend_arg_info, ptr %14, i64 %16
  %18 = getelementptr inbounds nuw %struct._zend_arg_info, ptr %17, i32 0, i32 1
  %19 = getelementptr inbounds nuw %struct.zend_type, ptr %18, i32 0, i32 1
  %20 = load i32, ptr %19, align 8, !tbaa !250
  %21 = and i32 %20, 33554431
  %22 = icmp ne i32 %21, 0
  br i1 %22, label %23, label %71

23:                                               ; preds = %5
  %24 = load ptr, ptr %8, align 8, !tbaa !77
  %25 = getelementptr inbounds nuw %struct.anon.7, ptr %24, i32 0, i32 8
  %26 = load ptr, ptr %25, align 8, !tbaa !44
  %27 = load i32, ptr %6, align 4, !tbaa !4
  %28 = zext i32 %27 to i64
  %29 = getelementptr inbounds nuw %struct._zend_arg_info, ptr %26, i64 %28
  %30 = getelementptr inbounds nuw %struct._zend_arg_info, ptr %29, i32 0, i32 1
  %31 = getelementptr inbounds nuw %struct.zend_type, ptr %30, i32 0, i32 1
  %32 = load i32, ptr %31, align 8, !tbaa !250
  %33 = load i32, ptr %10, align 4, !tbaa !4
  %34 = and i32 %32, %33
  %35 = icmp ne i32 %34, 0
  br i1 %35, label %71, label %36

36:                                               ; preds = %23
  %37 = load i32, ptr %9, align 4, !tbaa !4
  %38 = load ptr, ptr %7, align 8, !tbaa !66
  %39 = getelementptr inbounds nuw %struct._zend_class_entry, ptr %38, i32 0, i32 1
  %40 = load ptr, ptr %39, align 8, !tbaa !54
  %41 = getelementptr inbounds nuw %struct._zend_string, ptr %40, i32 0, i32 3
  %42 = getelementptr inbounds [1 x i8], ptr %41, i64 0, i64 0
  %43 = load ptr, ptr %8, align 8, !tbaa !77
  %44 = getelementptr inbounds nuw %struct.anon.7, ptr %43, i32 0, i32 3
  %45 = load ptr, ptr %44, align 8, !tbaa !44
  %46 = getelementptr inbounds nuw %struct._zend_string, ptr %45, i32 0, i32 3
  %47 = getelementptr inbounds [1 x i8], ptr %46, i64 0, i64 0
  %48 = load i32, ptr %6, align 4, !tbaa !4
  %49 = add i32 %48, 1
  %50 = load ptr, ptr %8, align 8, !tbaa !77
  %51 = getelementptr inbounds nuw %struct.anon.7, ptr %50, i32 0, i32 8
  %52 = load ptr, ptr %51, align 8, !tbaa !44
  %53 = load i32, ptr %6, align 4, !tbaa !4
  %54 = zext i32 %53 to i64
  %55 = getelementptr inbounds nuw %struct._zend_arg_info, ptr %52, i64 %54
  %56 = getelementptr inbounds nuw %struct._zend_arg_info, ptr %55, i32 0, i32 0
  %57 = load ptr, ptr %56, align 8, !tbaa !252
  %58 = getelementptr inbounds nuw %struct._zend_string, ptr %57, i32 0, i32 3
  %59 = getelementptr inbounds [1 x i8], ptr %58, i64 0, i64 0
  %60 = getelementptr inbounds nuw %struct.zend_type, ptr %11, i32 0, i32 0
  store ptr null, ptr %60, align 8, !tbaa !241
  %61 = getelementptr inbounds nuw %struct.zend_type, ptr %11, i32 0, i32 1
  %62 = load i32, ptr %10, align 4, !tbaa !4
  store i32 %62, ptr %61, align 8, !tbaa !248
  %63 = getelementptr i8, ptr %11, i64 12
  call void @llvm.memset.p0.i64(ptr align 4 %63, i8 0, i64 4, i1 false)
  %64 = getelementptr inbounds nuw { ptr, i32 }, ptr %11, i32 0, i32 0
  %65 = load ptr, ptr %64, align 8
  %66 = getelementptr inbounds nuw { ptr, i32 }, ptr %11, i32 0, i32 1
  %67 = load i32, ptr %66, align 8
  %68 = call ptr @zend_type_to_string(ptr %65, i32 %67)
  %69 = getelementptr inbounds nuw %struct._zend_string, ptr %68, i32 0, i32 3
  %70 = getelementptr inbounds [1 x i8], ptr %69, i64 0, i64 0
  call void (i32, ptr, ...) @zend_error(i32 noundef %37, ptr noundef @.str.171, ptr noundef %42, ptr noundef %47, i32 noundef %49, ptr noundef %59, ptr noundef %70)
  br label %71

71:                                               ; preds = %36, %23, %5
  ret void
}