; Function Attrs: nounwind uwtable
define internal fastcc void @zend_check_magic_method_arg_type(i32 noundef range(i32 0, 2) %0, ptr noundef readonly captures(none) %1, ptr noundef readonly captures(none) %2, i32 noundef %3, i32 noundef range(i32 64, 129) %4) unnamed_addr #2 {
  %6 = getelementptr inbounds nuw i8, ptr %2, i64 40
  %7 = load ptr, ptr %6, align 8, !tbaa !42
  %8 = zext nneg i32 %0 to i64
  %9 = getelementptr inbounds nuw %struct._zend_arg_info, ptr %7, i64 %8
  %10 = getelementptr inbounds nuw i8, ptr %9, i64 16
  %11 = load i32, ptr %10, align 8, !tbaa !250
  %12 = and i32 %11, 33554431
  %.not = icmp ne i32 %12, 0
  %13 = and i32 %11, %4
  %.not11 = icmp eq i32 %13, 0
  %or.cond = and i1 %.not, %.not11
  br i1 %or.cond, label %14, label %26

14:                                               ; preds = %5
  %15 = getelementptr inbounds nuw i8, ptr %1, i64 8
  %16 = load ptr, ptr %15, align 8, !tbaa !50
  %17 = getelementptr inbounds nuw i8, ptr %16, i64 24
  %18 = getelementptr inbounds nuw i8, ptr %2, i64 8
  %19 = load ptr, ptr %18, align 8, !tbaa !42
  %20 = getelementptr inbounds nuw i8, ptr %19, i64 24
  %21 = add nuw nsw i32 %0, 1
  %22 = load ptr, ptr %9, align 8, !tbaa !252
  %23 = getelementptr inbounds nuw i8, ptr %22, i64 24
  %24 = tail call ptr @zend_type_to_string(ptr null, i32 %4) #34
  %25 = getelementptr inbounds nuw i8, ptr %24, i64 24
  tail call void (i32, ptr, ...) @zend_error(i32 noundef %3, ptr noundef nonnull @.str.171, ptr noundef nonnull %17, ptr noundef nonnull %20, i32 noundef %21, ptr noundef nonnull %23, ptr noundef nonnull %25) #34
  br label %26

26:                                               ; preds = %14, %5
  ret void
}